target datalayout = "e-m:e-p270:32:32-p271:32:32-p272:64:64-i64:64-i128:128-f80:128-n8:16:32:64-S128"
target triple = "x86_64-pc-linux-gnu"

@.str = private unnamed_addr constant [2 x i8] c"#\00", align 1

; Function Attrs: nounwind uwtable
define zeroext i1 @lv_text_is_cmd(ptr noundef %0, i32 noundef %1) #0 {
  %3 = alloca ptr, align 8
  %4 = alloca i32, align 4
  %5 = alloca i8, align 1
  store ptr %0, ptr %3, align 8, !tbaa !3
  store i32 %1, ptr %4, align 4, !tbaa !8
  call void @llvm.lifetime.start.p0(i64 1, ptr %5) #5
  store i8 0, ptr %5, align 1, !tbaa !25
  %6 = load i32, ptr %4, align 4, !tbaa !8
  %7 = load i8, ptr @.str, align 1, !tbaa !7
  %8 = sext i8 %7 to i32
  %9 = icmp eq i32 %6, %8
  br i1 %9, label %10, label %31

10:                                               ; preds = %2
  %11 = load ptr, ptr %3, align 8, !tbaa !3
  %12 = load i32, ptr %11, align 4, !tbaa !8
  %13 = icmp eq i32 %12, 0
  br i1 %13, label %14, label %16

14:                                               ; preds = %10
  %15 = load ptr, ptr %3, align 8, !tbaa !3
  store i32 1, ptr %15, align 4, !tbaa !8
  store i8 1, ptr %5, align 1, !tbaa !25
  br label %30

16:                                               ; preds = %10
  %17 = load ptr, ptr %3, align 8, !tbaa !3
  %18 = load i32, ptr %17, align 4, !tbaa !8
  %19 = icmp eq i32 %18, 0
  br i1 %19, label %20, label %22

20:                                               ; preds = %16
  %21 = load ptr, ptr %3, align 8, !tbaa !3
  store i32 0, ptr %21, align 4, !tbaa !8
  br label %29

22:                                               ; preds = %16
  %23 = load ptr, ptr %3, align 8, !tbaa !3
  %24 = load i32, ptr %23, align 4, !tbaa !8
  %25 = icmp eq i32 %24, 2
  br i1 %25, label %26, label %28

26:                                               ; preds = %22
  %27 = load ptr, ptr %3, align 8, !tbaa !3
  store i32 0, ptr %27, align 4, !tbaa !8
  store i8 1, ptr %5, align 1, !tbaa !25
  br label %28

28:                                               ; preds = %26, %22
  br label %29

29:                                               ; preds = %28, %20
  br label %30

30:                                               ; preds = %29, %14
  br label %31

31:                                               ; preds = %30, %2
  %32 = load ptr, ptr %3, align 8, !tbaa !3
  %33 = load i32, ptr %32, align 4, !tbaa !8
  %34 = icmp eq i32 %33, 1
  br i1 %34, label %35, label %41

35:                                               ; preds = %31
  %36 = load i32, ptr %4, align 4, !tbaa !8
  %37 = icmp eq i32 %36, 32
  br i1 %37, label %38, label %40

38:                                               ; preds = %35
  %39 = load ptr, ptr %3, align 8, !tbaa !3
  store i32 2, ptr %39, align 4, !tbaa !8
  br label %40

40:                                               ; preds = %38, %35
  store i8 1, ptr %5, align 1, !tbaa !25
  br label %41

41:                                               ; preds = %40, %31
  %42 = load i8, ptr %5, align 1, !tbaa !25, !range !27, !noundef !28
  %43 = trunc i8 %42 to i1
  call void @llvm.lifetime.end.p0(i64 1, ptr %5) #5
  ret i1 %43
}

; Function Attrs: nounwind uwtable
define void @lv_text_encoded_letter_next_2(ptr noundef %0, ptr noundef %1, ptr noundef %2, ptr noundef %3) #0 {
  %5 = alloca ptr, align 8
  %6 = alloca ptr, align 8
  %7 = alloca ptr, align 8
  %8 = alloca ptr, align 8
  store ptr %0, ptr %5, align 8, !tbaa !3
  store ptr %1, ptr %6, align 8, !tbaa !3
  store ptr %2, ptr %7, align 8, !tbaa !3
  store ptr %3, ptr %8, align 8, !tbaa !3
  %9 = load ptr, ptr %5, align 8, !tbaa !3
  %10 = load ptr, ptr %8, align 8, !tbaa !3
  %11 = call i32 @lv_text_utf8_next(ptr noundef %9, ptr noundef %10)
  %12 = load ptr, ptr %6, align 8, !tbaa !3
  store i32 %11, ptr %12, align 4, !tbaa !8
  %13 = load ptr, ptr %6, align 8, !tbaa !3
  %14 = load i32, ptr %13, align 4, !tbaa !8
  %15 = icmp ne i32 %14, 0
  br i1 %15, label %16, label %23

16:                                               ; preds = %4
  %17 = load ptr, ptr %5, align 8, !tbaa !3
  %18 = load ptr, ptr %8, align 8, !tbaa !3
  %19 = load i32, ptr %18, align 4, !tbaa !8
  %20 = zext i32 %19 to i64
  %21 = getelementptr inbounds nuw i8, ptr %17, i64 %20
  %22 = call i32 @lv_text_utf8_next(ptr noundef %21, ptr noundef null)
  br label %24

23:                                               ; preds = %4
  br label %24

24:                                               ; preds = %23, %16
  %25 = phi i32 [ %22, %16 ], [ 0, %23 ]
  %26 = load ptr, ptr %7, align 8, !tbaa !3
  store i32 %25, ptr %26, align 4, !tbaa !8
  ret void
}

; Function Attrs: nounwind uwtable
define i32 @lv_text_get_width_with_flags(ptr noundef %0, i32 noundef %1, ptr noundef %2, i32 noundef %3, i32 noundef %4) #0 {
  %6 = alloca i32, align 4
  %7 = alloca ptr, align 8
  %8 = alloca i32, align 4
  %9 = alloca ptr, align 8
  %10 = alloca i32, align 4
  %11 = alloca i32, align 4
  %12 = alloca i32, align 4
  %13 = alloca i32, align 4
  %14 = alloca i32, align 4
  %15 = alloca i32, align 4
  %16 = alloca i32, align 4
  %17 = alloca i32, align 4
  %18 = alloca i32, align 4
  store ptr %0, ptr %7, align 8, !tbaa !3
  store i32 %1, ptr %8, align 4, !tbaa !8
  store ptr %2, ptr %9, align 8, !tbaa !3
  store i32 %3, ptr %10, align 4, !tbaa !8
  store i32 %4, ptr %11, align 4, !tbaa !8
  %19 = load ptr, ptr %7, align 8, !tbaa !3
  %20 = icmp eq ptr %19, null
  br i1 %20, label %21, label %22

21:                                               ; preds = %5
  store i32 0, ptr %6, align 4
  br label %82

22:                                               ; preds = %5
  %23 = load ptr, ptr %9, align 8, !tbaa !3
  %24 = icmp eq ptr %23, null
  br i1 %24, label %25, label %26

25:                                               ; preds = %22
  store i32 0, ptr %6, align 4
  br label %82

26:                                               ; preds = %22
  %27 = load ptr, ptr %7, align 8, !tbaa !3
  %28 = getelementptr inbounds i8, ptr %27, i64 0
  %29 = load i8, ptr %28, align 1, !tbaa !7
  %30 = sext i8 %29 to i32
  %31 = icmp eq i32 %30, 0
  br i1 %31, label %32, label %33

32:                                               ; preds = %26
  store i32 0, ptr %6, align 4
  br label %82

33:                                               ; preds = %26
  call void @llvm.lifetime.start.p0(i64 4, ptr %12) #5
  store i32 0, ptr %12, align 4, !tbaa !8
  call void @llvm.lifetime.start.p0(i64 4, ptr %13) #5
  store i32 0, ptr %13, align 4, !tbaa !8
  call void @llvm.lifetime.start.p0(i64 4, ptr %14) #5
  store i32 0, ptr %14, align 4, !tbaa !8
  %34 = load i32, ptr %8, align 4, !tbaa !8
  %35 = icmp ne i32 %34, 0
  br i1 %35, label %36, label %80

36:                                               ; preds = %33
  br label %37

37:                                               ; preds = %71, %69, %36
  %38 = load i32, ptr %12, align 4, !tbaa !8
  %39 = load i32, ptr %8, align 4, !tbaa !8
  %40 = icmp ult i32 %38, %39
  br i1 %40, label %41, label %72

41:                                               ; preds = %37
  call void @llvm.lifetime.start.p0(i64 4, ptr %15) #5
  call void @llvm.lifetime.start.p0(i64 4, ptr %16) #5
  %42 = load ptr, ptr %7, align 8, !tbaa !3
  call void @lv_text_encoded_letter_next_2(ptr noundef %42, ptr noundef %15, ptr noundef %16, ptr noundef %12)
  %43 = load i32, ptr %11, align 4, !tbaa !8
  %44 = and i32 %43, 8
  %45 = icmp ne i32 %44, 0
  br i1 %45, label %46, label %53

46:                                               ; preds = %41
  %47 = load i32, ptr %15, align 4, !tbaa !8
  %48 = call zeroext i1 @lv_text_is_cmd(ptr noundef %14, i32 noundef %47)
  %49 = zext i1 %48 to i32
  %50 = icmp ne i32 %49, 0
  br i1 %50, label %51, label %52

51:                                               ; preds = %46
  store i32 2, ptr %17, align 4
  br label %69, !llvm.loop !30

52:                                               ; preds = %46
  br label %53

53:                                               ; preds = %52, %41
  call void @llvm.lifetime.start.p0(i64 4, ptr %18) #5
  %54 = load ptr, ptr %9, align 8, !tbaa !3
  %55 = load i32, ptr %15, align 4, !tbaa !8
  %56 = load i32, ptr %16, align 4, !tbaa !8
  %57 = call zeroext i16 @lv_font_get_glyph_width(ptr noundef %54, i32 noundef %55, i32 noundef %56)
  %58 = zext i16 %57 to i32
  store i32 %58, ptr %18, align 4, !tbaa !8
  %59 = load i32, ptr %18, align 4, !tbaa !8
  %60 = icmp sgt i32 %59, 0
  br i1 %60, label %61, label %68

61:                                               ; preds = %53
  %62 = load i32, ptr %18, align 4, !tbaa !8
  %63 = load i32, ptr %13, align 4, !tbaa !8
  %64 = add nsw i32 %63, %62
  store i32 %64, ptr %13, align 4, !tbaa !8
  %65 = load i32, ptr %10, align 4, !tbaa !8
  %66 = load i32, ptr %13, align 4, !tbaa !8
  %67 = add nsw i32 %66, %65
  store i32 %67, ptr %13, align 4, !tbaa !8
  br label %68

68:                                               ; preds = %61, %53
  call void @llvm.lifetime.end.p0(i64 4, ptr %18) #5
  store i32 0, ptr %17, align 4
  br label %69

69:                                               ; preds = %68, %51
  call void @llvm.lifetime.end.p0(i64 4, ptr %16) #5
  call void @llvm.lifetime.end.p0(i64 4, ptr %15) #5
  %70 = load i32, ptr %17, align 4
  switch i32 %70, label %84 [
    i32 0, label %71
    i32 2, label %37
  ]

71:                                               ; preds = %69
  br label %37, !llvm.loop !30

72:                                               ; preds = %37
  %73 = load i32, ptr %13, align 4, !tbaa !8
  %74 = icmp sgt i32 %73, 0
  br i1 %74, label %75, label %79

75:                                               ; preds = %72
  %76 = load i32, ptr %10, align 4, !tbaa !8
  %77 = load i32, ptr %13, align 4, !tbaa !8
  %78 = sub nsw i32 %77, %76
  store i32 %78, ptr %13, align 4, !tbaa !8
  br label %79

79:                                               ; preds = %75, %72
  br label %80

80:                                               ; preds = %79, %33
  %81 = load i32, ptr %13, align 4, !tbaa !8
  store i32 %81, ptr %6, align 4
  store i32 1, ptr %17, align 4
  call void @llvm.lifetime.end.p0(i64 4, ptr %14) #5
  call void @llvm.lifetime.end.p0(i64 4, ptr %13) #5
  call void @llvm.lifetime.end.p0(i64 4, ptr %12) #5
  br label %82

82:                                               ; preds = %80, %32, %25, %21
  %83 = load i32, ptr %6, align 4
  ret i32 %83

84:                                               ; preds = %69
  unreachable
}