; Function Attrs: nounwind uwtable
define i32 @lv_text_get_width_with_flags(ptr noundef readonly %0, i32 noundef %1, ptr noundef %2, i32 noundef %3, i32 noundef %4) local_unnamed_addr #2 {
  %6 = alloca i32, align 4
  %7 = icmp eq ptr %0, null
  %8 = icmp eq ptr %2, null
  %or.cond = or i1 %7, %8
  br i1 %or.cond, label %48, label %9

9:                                                ; preds = %5
  %10 = load i8, ptr %0, align 1, !tbaa !3
  %11 = icmp eq i8 %10, 0
  br i1 %11, label %48, label %12

12:                                               ; preds = %9
  call void @llvm.lifetime.start.p0(i64 4, ptr nonnull %6) #11
  store i32 0, ptr %6, align 4, !tbaa !6
  %.not = icmp eq i32 %1, 0
  br i1 %.not, label %47, label %.lr.ph

.lr.ph:                                           ; preds = %12
  %13 = and i32 %4, 8
  %.not21 = icmp eq i32 %13, 0
  br i1 %.not21, label %.lr.ph.split.us.split.us, label %.lr.ph.split.split

.lr.ph.split.us.split.us:                         ; preds = %.lr.ph, %lv_text_is_cmd.exit.us.us
  %.138.us.us = phi i32 [ %.3.us.us, %lv_text_is_cmd.exit.us.us ], [ 0, %.lr.ph ]
  %14 = call i32 @lv_text_utf8_next(ptr noundef nonnull readonly %0, ptr noundef nonnull %6)
  %.not.i.us.us = icmp eq i32 %14, 0
  br i1 %.not.i.us.us, label %lv_text_is_cmd.exit.us.us, label %lv_text_encoded_letter_next_2.exit.us.us

lv_text_encoded_letter_next_2.exit.us.us:         ; preds = %.lr.ph.split.us.split.us
  %15 = load i32, ptr %6, align 4, !tbaa !6
  %16 = zext i32 %15 to i64
  %17 = getelementptr inbounds nuw i8, ptr %0, i64 %16
  %18 = call i32 @lv_text_utf8_next(ptr noundef nonnull readonly %17, ptr noundef null)
  br label %lv_text_is_cmd.exit.us.us

lv_text_is_cmd.exit.us.us:                        ; preds = %.lr.ph.split.us.split.us, %lv_text_encoded_letter_next_2.exit.us.us
  %19 = phi i32 [ %18, %lv_text_encoded_letter_next_2.exit.us.us ], [ 0, %.lr.ph.split.us.split.us ]
  %20 = call zeroext i16 @lv_font_get_glyph_width(ptr noundef nonnull %2, i32 noundef %14, i32 noundef %19) #11
  %.not22.us.us = icmp eq i16 %20, 0
  %21 = zext i16 %20 to i32
  %22 = add i32 %.138.us.us, %3
  %23 = add i32 %22, %21
  %.3.us.us = select i1 %.not22.us.us, i32 %.138.us.us, i32 %23
  %24 = load i32, ptr %6, align 4, !tbaa !6
  %25 = icmp ult i32 %24, %1
  br i1 %25, label %.lr.ph.split.us.split.us, label %._crit_edge

.lr.ph.split.split:                               ; preds = %.lr.ph, %lv_text_is_cmd.exit.thread
  %.138 = phi i32 [ %.2, %lv_text_is_cmd.exit.thread ], [ 0, %.lr.ph ]
  %.02637 = phi i32 [ %.228, %lv_text_is_cmd.exit.thread ], [ 0, %.lr.ph ]
  %26 = call i32 @lv_text_utf8_next(ptr noundef nonnull readonly %0, ptr noundef nonnull %6)
  %.not.i = icmp eq i32 %26, 0
  br i1 %.not.i, label %lv_text_encoded_letter_next_2.exit.thread, label %lv_text_encoded_letter_next_2.exit

lv_text_encoded_letter_next_2.exit:               ; preds = %.lr.ph.split.split
  %27 = load i32, ptr %6, align 4, !tbaa !6
  %28 = zext i32 %27 to i64
  %29 = getelementptr inbounds nuw i8, ptr %0, i64 %28
  %30 = call i32 @lv_text_utf8_next(ptr noundef nonnull readonly %29, ptr noundef null)
  %31 = icmp eq i32 %26, 35
  br i1 %31, label %33, label %34

lv_text_encoded_letter_next_2.exit.thread:        ; preds = %.lr.ph.split.split
  %32 = icmp eq i32 %.02637, 1
  br i1 %32, label %lv_text_is_cmd.exit.thread, label %lv_text_is_cmd.exit, !llvm.loop !22

33:                                               ; preds = %lv_text_encoded_letter_next_2.exit
  %switch = icmp ult i32 %.02637, 2
  %spec.select58 = zext i1 %switch to i32
  br label %lv_text_is_cmd.exit.thread

34:                                               ; preds = %lv_text_encoded_letter_next_2.exit
  %35 = icmp eq i32 %.02637, 1
  br i1 %35, label %36, label %lv_text_is_cmd.exit, !llvm.loop !22

36:                                               ; preds = %34
  %37 = icmp eq i32 %26, 32
  %spec.select36 = select i1 %37, i32 2, i32 1
  br label %lv_text_is_cmd.exit.thread

lv_text_is_cmd.exit:                              ; preds = %34, %lv_text_encoded_letter_next_2.exit.thread
  %38 = phi i32 [ 0, %lv_text_encoded_letter_next_2.exit.thread ], [ %30, %34 ]
  %39 = call zeroext i16 @lv_font_get_glyph_width(ptr noundef nonnull %2, i32 noundef %26, i32 noundef %38) #11
  %.not22 = icmp eq i16 %39, 0
  %40 = zext i16 %39 to i32
  %41 = add i32 %.138, %3
  %42 = add i32 %41, %40
  %.3 = select i1 %.not22, i32 %.138, i32 %42
  br label %lv_text_is_cmd.exit.thread

lv_text_is_cmd.exit.thread:                       ; preds = %33, %36, %lv_text_encoded_letter_next_2.exit.thread, %lv_text_is_cmd.exit
  %.228 = phi i32 [ %.02637, %lv_text_is_cmd.exit ], [ 1, %lv_text_encoded_letter_next_2.exit.thread ], [ %spec.select36, %36 ], [ %spec.select58, %33 ]
  %.2 = phi i32 [ %.3, %lv_text_is_cmd.exit ], [ %.138, %lv_text_encoded_letter_next_2.exit.thread ], [ %.138, %36 ], [ %.138, %33 ]
  %43 = load i32, ptr %6, align 4, !tbaa !6
  %44 = icmp ult i32 %43, %1
  br i1 %44, label %.lr.ph.split.split, label %._crit_edge

._crit_edge:                                      ; preds = %lv_text_is_cmd.exit.thread, %lv_text_is_cmd.exit.us.us
  %.1.lcssa = phi i32 [ %.3.us.us, %lv_text_is_cmd.exit.us.us ], [ %.2, %lv_text_is_cmd.exit.thread ]
  %45 = icmp sgt i32 %.1.lcssa, 0
  %46 = select i1 %45, i32 %3, i32 0
  %spec.select = sub nsw i32 %.1.lcssa, %46
  br label %47

47:                                               ; preds = %._crit_edge, %12
  %.017 = phi i32 [ 0, %12 ], [ %spec.select, %._crit_edge ]
  call void @llvm.lifetime.end.p0(i64 4, ptr nonnull %6) #11
  br label %48

48:                                               ; preds = %9, %5, %47
  %.0 = phi i32 [ %.017, %47 ], [ 0, %5 ], [ 0, %9 ]
  ret i32 %.0
}